target datalayout = "e-m:e-p270:32:32-p271:32:32-p272:64:64-i64:64-i128:128-f80:128-n8:16:32:64-S128"
target triple = "x86_64-pc-linux-gnu"

@.str.46 = private unnamed_addr constant [3 x i8] c"%s\00", align 1
@.str.141 = private unnamed_addr constant [33 x i8] c"container information not found.\00", align 1
@.str.142 = private unnamed_addr constant [32 x i8] c"container (cgroup) information:\00", align 1
@.str.143 = private unnamed_addr constant [19 x i8] c"container_type: %s\00", align 1
@.str.144 = private unnamed_addr constant [14 x i8] c"not supported\00", align 1
@.str.145 = private unnamed_addr constant [20 x i8] c"cpu_cpuset_cpus: %s\00", align 1
@.str.146 = private unnamed_addr constant [21 x i8] c"cpu_memory_nodes: %s\00", align 1
@.str.147 = private unnamed_addr constant [25 x i8] c"active_processor_count: \00", align 1
@ActiveProcessorCount = external global i32, align 4
@.str.148 = private unnamed_addr constant [50 x i8] c"%d, but overridden by -XX:ActiveProcessorCount %d\00", align 1
@.str.149 = private unnamed_addr constant [3 x i8] c"%d\00", align 1
@.str.150 = private unnamed_addr constant [12 x i8] c"cpu_quota: \00", align 1
@.str.151 = private unnamed_addr constant [9 x i8] c"no quota\00", align 1
@.str.152 = private unnamed_addr constant [13 x i8] c"cpu_period: \00", align 1
@.str.153 = private unnamed_addr constant [10 x i8] c"no period\00", align 1
@.str.154 = private unnamed_addr constant [13 x i8] c"cpu_shares: \00", align 1
@.str.155 = private unnamed_addr constant [10 x i8] c"no shares\00", align 1
@.str.156 = private unnamed_addr constant [22 x i8] c"memory_limit_in_bytes\00", align 1
@.str.157 = private unnamed_addr constant [31 x i8] c"memory_and_swap_limit_in_bytes\00", align 1
@.str.158 = private unnamed_addr constant [27 x i8] c"memory_soft_limit_in_bytes\00", align 1
@.str.159 = private unnamed_addr constant [22 x i8] c"memory_usage_in_bytes\00", align 1
@.str.160 = private unnamed_addr constant [26 x i8] c"memory_max_usage_in_bytes\00", align 1
@.str.161 = private unnamed_addr constant [19 x i8] c"rss_usage_in_bytes\00", align 1
@.str.162 = private unnamed_addr constant [21 x i8] c"cache_usage_in_bytes\00", align 1
@.str.163 = private unnamed_addr constant [26 x i8] c"maximum number of tasks: \00", align 1
@.str.164 = private unnamed_addr constant [4 x i8] c"%ld\00", align 1
@.str.165 = private unnamed_addr constant [10 x i8] c"unlimited\00", align 1
@.str.166 = private unnamed_addr constant [26 x i8] c"current number of tasks: \00", align 1
@_ZN11OSContainer17_is_containerizedE = external global i8, align 1

; Function Attrs: mustprogress nounwind uwtable
define linkonce_odr hidden noundef zeroext i1 @_ZN11OSContainer16is_containerizedEv() #1 comdat align 2 {
  %1 = load i8, ptr @_ZN11OSContainer17_is_containerizedE, align 1
  %2 = trunc i8 %1 to i1
  ret i1 %2
}

; Function Attrs: mustprogress nounwind uwtable
define hidden noundef zeroext i1 @_ZN2os5Linux20print_container_infoEP12outputStream(ptr noundef %0) #1 align 2 {
  %2 = alloca i1, align 1
  %3 = alloca ptr, align 8
  %4 = alloca ptr, align 8
  %5 = alloca ptr, align 8
  %6 = alloca i32, align 4
  %7 = alloca i64, align 8
  store ptr %0, ptr %3, align 8
  %8 = call noundef zeroext i1 @_ZN11OSContainer16is_containerizedEv()
  br i1 %8, label %11, label %9

9:                                                ; preds = %1
  %10 = load ptr, ptr %3, align 8
  call void (ptr, ptr, ...) @_ZN12outputStream8print_crEPKcz(ptr noundef nonnull align 8 dereferenceable(56) %10, ptr noundef @.str.141)
  store i1 false, ptr %2, align 1
  br label %141

11:                                               ; preds = %1
  %12 = load ptr, ptr %3, align 8
  call void (ptr, ptr, ...) @_ZN12outputStream8print_crEPKcz(ptr noundef nonnull align 8 dereferenceable(56) %12, ptr noundef @.str.142)
  %13 = call noundef ptr @_ZN11OSContainer14container_typeEv()
  store ptr %13, ptr %4, align 8
  %14 = load ptr, ptr %3, align 8
  %15 = load ptr, ptr %4, align 8
  %16 = icmp ne ptr %15, null
  br i1 %16, label %17, label %19

17:                                               ; preds = %11
  %18 = load ptr, ptr %4, align 8
  br label %20

19:                                               ; preds = %11
  br label %20

20:                                               ; preds = %19, %17
  %21 = phi ptr [ %18, %17 ], [ @.str.144, %19 ]
  call void (ptr, ptr, ...) @_ZN12outputStream8print_crEPKcz(ptr noundef nonnull align 8 dereferenceable(56) %14, ptr noundef @.str.143, ptr noundef %21)
  %22 = call noundef ptr @_ZN11OSContainer15cpu_cpuset_cpusEv()
  store ptr %22, ptr %5, align 8
  %23 = load ptr, ptr %3, align 8
  %24 = load ptr, ptr %5, align 8
  %25 = icmp ne ptr %24, null
  br i1 %25, label %26, label %28

26:                                               ; preds = %20
  %27 = load ptr, ptr %5, align 8
  br label %29

28:                                               ; preds = %20
  br label %29

29:                                               ; preds = %28, %26
  %30 = phi ptr [ %27, %26 ], [ @.str.144, %28 ]
  call void (ptr, ptr, ...) @_ZN12outputStream8print_crEPKcz(ptr noundef nonnull align 8 dereferenceable(56) %23, ptr noundef @.str.145, ptr noundef %30)
  %31 = load ptr, ptr %5, align 8
  call void @_ZN2os4freeEPv(ptr noundef %31)
  %32 = call noundef ptr @_ZN11OSContainer23cpu_cpuset_memory_nodesEv()
  store ptr %32, ptr %5, align 8
  %33 = load ptr, ptr %3, align 8
  %34 = load ptr, ptr %5, align 8
  %35 = icmp ne ptr %34, null
  br i1 %35, label %36, label %38

36:                                               ; preds = %29
  %37 = load ptr, ptr %5, align 8
  br label %39

38:                                               ; preds = %29
  br label %39

39:                                               ; preds = %38, %36
  %40 = phi ptr [ %37, %36 ], [ @.str.144, %38 ]
  call void (ptr, ptr, ...) @_ZN12outputStream8print_crEPKcz(ptr noundef nonnull align 8 dereferenceable(56) %33, ptr noundef @.str.146, ptr noundef %40)
  %41 = load ptr, ptr %5, align 8
  call void @_ZN2os4freeEPv(ptr noundef %41)
  %42 = call noundef i32 @_ZN11OSContainer22active_processor_countEv()
  store i32 %42, ptr %6, align 4
  %43 = load ptr, ptr %3, align 8
  call void (ptr, ptr, ...) @_ZN12outputStream5printEPKcz(ptr noundef nonnull align 8 dereferenceable(56) %43, ptr noundef @.str.147)
  %44 = load i32, ptr %6, align 4
  %45 = icmp sgt i32 %44, 0
  br i1 %45, label %46, label %57

46:                                               ; preds = %39
  %47 = load i32, ptr @ActiveProcessorCount, align 4
  %48 = icmp sgt i32 %47, 0
  br i1 %48, label %49, label %53

49:                                               ; preds = %46
  %50 = load ptr, ptr %3, align 8
  %51 = load i32, ptr %6, align 4
  %52 = load i32, ptr @ActiveProcessorCount, align 4
  call void (ptr, ptr, ...) @_ZN12outputStream8print_crEPKcz(ptr noundef nonnull align 8 dereferenceable(56) %50, ptr noundef @.str.148, i32 noundef %51, i32 noundef %52)
  br label %56

53:                                               ; preds = %46
  %54 = load ptr, ptr %3, align 8
  %55 = load i32, ptr %6, align 4
  call void (ptr, ptr, ...) @_ZN12outputStream8print_crEPKcz(ptr noundef nonnull align 8 dereferenceable(56) %54, ptr noundef @.str.149, i32 noundef %55)
  br label %56

56:                                               ; preds = %53, %49
  br label %59

57:                                               ; preds = %39
  %58 = load ptr, ptr %3, align 8
  call void (ptr, ptr, ...) @_ZN12outputStream8print_crEPKcz(ptr noundef nonnull align 8 dereferenceable(56) %58, ptr noundef @.str.144)
  br label %59

59:                                               ; preds = %57, %56
  %60 = call noundef i32 @_ZN11OSContainer9cpu_quotaEv()
  store i32 %60, ptr %6, align 4
  %61 = load ptr, ptr %3, align 8
  call void (ptr, ptr, ...) @_ZN12outputStream5printEPKcz(ptr noundef nonnull align 8 dereferenceable(56) %61, ptr noundef @.str.150)
  %62 = load i32, ptr %6, align 4
  %63 = icmp sgt i32 %62, 0
  br i1 %63, label %64, label %67

64:                                               ; preds = %59
  %65 = load ptr, ptr %3, align 8
  %66 = load i32, ptr %6, align 4
  call void (ptr, ptr, ...) @_ZN12outputStream8print_crEPKcz(ptr noundef nonnull align 8 dereferenceable(56) %65, ptr noundef @.str.149, i32 noundef %66)
  br label %72

67:                                               ; preds = %59
  %68 = load ptr, ptr %3, align 8
  %69 = load i32, ptr %6, align 4
  %70 = icmp eq i32 %69, -2
  %71 = select i1 %70, ptr @.str.144, ptr @.str.151
  call void (ptr, ptr, ...) @_ZN12outputStream8print_crEPKcz(ptr noundef nonnull align 8 dereferenceable(56) %68, ptr noundef @.str.46, ptr noundef %71)
  br label %72

72:                                               ; preds = %67, %64
  %73 = call noundef i32 @_ZN11OSContainer10cpu_periodEv()
  store i32 %73, ptr %6, align 4
  %74 = load ptr, ptr %3, align 8
  call void (ptr, ptr, ...) @_ZN12outputStream5printEPKcz(ptr noundef nonnull align 8 dereferenceable(56) %74, ptr noundef @.str.152)
  %75 = load i32, ptr %6, align 4
  %76 = icmp sgt i32 %75, 0
  br i1 %76, label %77, label %80

77:                                               ; preds = %72
  %78 = load ptr, ptr %3, align 8
  %79 = load i32, ptr %6, align 4
  call void (ptr, ptr, ...) @_ZN12outputStream8print_crEPKcz(ptr noundef nonnull align 8 dereferenceable(56) %78, ptr noundef @.str.149, i32 noundef %79)
  br label %85

80:                                               ; preds = %72
  %81 = load ptr, ptr %3, align 8
  %82 = load i32, ptr %6, align 4
  %83 = icmp eq i32 %82, -2
  %84 = select i1 %83, ptr @.str.144, ptr @.str.153
  call void (ptr, ptr, ...) @_ZN12outputStream8print_crEPKcz(ptr noundef nonnull align 8 dereferenceable(56) %81, ptr noundef @.str.46, ptr noundef %84)
  br label %85

85:                                               ; preds = %80, %77
  %86 = call noundef i32 @_ZN11OSContainer10cpu_sharesEv()
  store i32 %86, ptr %6, align 4
  %87 = load ptr, ptr %3, align 8
  call void (ptr, ptr, ...) @_ZN12outputStream5printEPKcz(ptr noundef nonnull align 8 dereferenceable(56) %87, ptr noundef @.str.154)
  %88 = load i32, ptr %6, align 4
  %89 = icmp sgt i32 %88, 0
  br i1 %89, label %90, label %93

90:                                               ; preds = %85
  %91 = load ptr, ptr %3, align 8
  %92 = load i32, ptr %6, align 4
  call void (ptr, ptr, ...) @_ZN12outputStream8print_crEPKcz(ptr noundef nonnull align 8 dereferenceable(56) %91, ptr noundef @.str.149, i32 noundef %92)
  br label %98

93:                                               ; preds = %85
  %94 = load ptr, ptr %3, align 8
  %95 = load i32, ptr %6, align 4
  %96 = icmp eq i32 %95, -2
  %97 = select i1 %96, ptr @.str.144, ptr @.str.155
  call void (ptr, ptr, ...) @_ZN12outputStream8print_crEPKcz(ptr noundef nonnull align 8 dereferenceable(56) %94, ptr noundef @.str.46, ptr noundef %97)
  br label %98

98:                                               ; preds = %93, %90
  %99 = load ptr, ptr %3, align 8
  %100 = call noundef i64 @_ZN11OSContainer21memory_limit_in_bytesEv()
  call void @_ZN11OSContainer22print_container_helperEP12outputStreamlPKc(ptr noundef %99, i64 noundef %100, ptr noundef @.str.156)
  %101 = load ptr, ptr %3, align 8
  %102 = call noundef i64 @_ZN11OSContainer30memory_and_swap_limit_in_bytesEv()
  call void @_ZN11OSContainer22print_container_helperEP12outputStreamlPKc(ptr noundef %101, i64 noundef %102, ptr noundef @.str.157)
  %103 = load ptr, ptr %3, align 8
  %104 = call noundef i64 @_ZN11OSContainer26memory_soft_limit_in_bytesEv()
  call void @_ZN11OSContainer22print_container_helperEP12outputStreamlPKc(ptr noundef %103, i64 noundef %104, ptr noundef @.str.158)
  %105 = load ptr, ptr %3, align 8
  %106 = call noundef i64 @_ZN11OSContainer21memory_usage_in_bytesEv()
  call void @_ZN11OSContainer22print_container_helperEP12outputStreamlPKc(ptr noundef %105, i64 noundef %106, ptr noundef @.str.159)
  %107 = load ptr, ptr %3, align 8
  %108 = call noundef i64 @_ZN11OSContainer25memory_max_usage_in_bytesEv()
  call void @_ZN11OSContainer22print_container_helperEP12outputStreamlPKc(ptr noundef %107, i64 noundef %108, ptr noundef @.str.160)
  %109 = load ptr, ptr %3, align 8
  %110 = call noundef i64 @_ZN11OSContainer18rss_usage_in_bytesEv()
  call void @_ZN11OSContainer22print_container_helperEP12outputStreamlPKc(ptr noundef %109, i64 noundef %110, ptr noundef @.str.161)
  %111 = load ptr, ptr %3, align 8
  %112 = call noundef i64 @_ZN11OSContainer20cache_usage_in_bytesEv()
  call void @_ZN11OSContainer22print_container_helperEP12outputStreamlPKc(ptr noundef %111, i64 noundef %112, ptr noundef @.str.162)
  %113 = load ptr, ptr %3, align 8
  call void @_ZN11OSContainer27print_version_specific_infoEP12outputStream(ptr noundef %113)
  %114 = call noundef i64 @_ZN11OSContainer8pids_maxEv()
  store i64 %114, ptr %7, align 8
  %115 = load ptr, ptr %3, align 8
  call void (ptr, ptr, ...) @_ZN12outputStream5printEPKcz(ptr noundef nonnull align 8 dereferenceable(56) %115, ptr noundef @.str.163)
  %116 = load i64, ptr %7, align 8
  %117 = icmp sgt i64 %116, 0
  br i1 %117, label %118, label %121

118:                                              ; preds = %98
  %119 = load ptr, ptr %3, align 8
  %120 = load i64, ptr %7, align 8
  call void (ptr, ptr, ...) @_ZN12outputStream8print_crEPKcz(ptr noundef nonnull align 8 dereferenceable(56) %119, ptr noundef @.str.164, i64 noundef %120)
  br label %126

121:                                              ; preds = %98
  %122 = load ptr, ptr %3, align 8
  %123 = load i64, ptr %7, align 8
  %124 = icmp eq i64 %123, -2
  %125 = select i1 %124, ptr @.str.144, ptr @.str.165
  call void (ptr, ptr, ...) @_ZN12outputStream8print_crEPKcz(ptr noundef nonnull align 8 dereferenceable(56) %122, ptr noundef @.str.46, ptr noundef %125)
  br label %126

126:                                              ; preds = %121, %118
  %127 = call noundef i64 @_ZN11OSContainer12pids_currentEv()
  store i64 %127, ptr %7, align 8
  %128 = load ptr, ptr %3, align 8
  call void (ptr, ptr, ...) @_ZN12outputStream5printEPKcz(ptr noundef nonnull align 8 dereferenceable(56) %128, ptr noundef @.str.166)
  %129 = load i64, ptr %7, align 8
  %130 = icmp sgt i64 %129, 0
  br i1 %130, label %131, label %134

131:                                              ; preds = %126
  %132 = load ptr, ptr %3, align 8
  %133 = load i64, ptr %7, align 8
  call void (ptr, ptr, ...) @_ZN12outputStream8print_crEPKcz(ptr noundef nonnull align 8 dereferenceable(56) %132, ptr noundef @.str.164, i64 noundef %133)
  br label %140

134:                                              ; preds = %126
  %135 = load i64, ptr %7, align 8
  %136 = icmp eq i64 %135, -2
  br i1 %136, label %137, label %139

137:                                              ; preds = %134
  %138 = load ptr, ptr %3, align 8
  call void (ptr, ptr, ...) @_ZN12outputStream8print_crEPKcz(ptr noundef nonnull align 8 dereferenceable(56) %138, ptr noundef @.str.144)
  br label %139

139:                                              ; preds = %137, %134
  br label %140

140:                                              ; preds = %139, %131
  store i1 true, ptr %2, align 1
  br label %141

141:                                              ; preds = %140, %9
  %142 = load i1, ptr %2, align 1
  ret i1 %142
}