; Function Attrs: mustprogress nounwind uwtable
define hidden noundef zeroext i1 @_ZN2os5Linux20print_container_infoEP12outputStream(ptr noundef %0) local_unnamed_addr #0 align 2 {
  %2 = load i8, ptr @_ZN11OSContainer17_is_containerizedE, align 1
  %3 = trunc i8 %2 to i1
  br i1 %3, label %5, label %4

4:                                                ; preds = %1
  tail call void (ptr, ptr, ...) @_ZN12outputStream8print_crEPKcz(ptr noundef nonnull align 8 dereferenceable(56) %0, ptr noundef nonnull @.str.141) #26
  br label %62

5:                                                ; preds = %1
  tail call void (ptr, ptr, ...) @_ZN12outputStream8print_crEPKcz(ptr noundef nonnull align 8 dereferenceable(56) %0, ptr noundef nonnull @.str.142) #26
  %6 = tail call noundef ptr @_ZN11OSContainer14container_typeEv() #26
  %.not = icmp eq ptr %6, null
  %7 = select i1 %.not, ptr @.str.144, ptr %6
  tail call void (ptr, ptr, ...) @_ZN12outputStream8print_crEPKcz(ptr noundef nonnull align 8 dereferenceable(56) %0, ptr noundef nonnull @.str.143, ptr noundef nonnull %7) #26
  %8 = tail call noundef ptr @_ZN11OSContainer15cpu_cpuset_cpusEv() #26
  %.not69 = icmp eq ptr %8, null
  %9 = select i1 %.not69, ptr @.str.144, ptr %8
  tail call void (ptr, ptr, ...) @_ZN12outputStream8print_crEPKcz(ptr noundef nonnull align 8 dereferenceable(56) %0, ptr noundef nonnull @.str.145, ptr noundef nonnull %9) #26
  tail call void @_ZN2os4freeEPv(ptr noundef %8) #26
  %10 = tail call noundef ptr @_ZN11OSContainer23cpu_cpuset_memory_nodesEv() #26
  %.not70 = icmp eq ptr %10, null
  %11 = select i1 %.not70, ptr @.str.144, ptr %10
  tail call void (ptr, ptr, ...) @_ZN12outputStream8print_crEPKcz(ptr noundef nonnull align 8 dereferenceable(56) %0, ptr noundef nonnull @.str.146, ptr noundef nonnull %11) #26
  tail call void @_ZN2os4freeEPv(ptr noundef %10) #26
  %12 = tail call noundef i32 @_ZN11OSContainer22active_processor_countEv() #26
  tail call void (ptr, ptr, ...) @_ZN12outputStream5printEPKcz(ptr noundef nonnull align 8 dereferenceable(56) %0, ptr noundef nonnull @.str.147) #26
  %13 = icmp sgt i32 %12, 0
  br i1 %13, label %14, label %19

14:                                               ; preds = %5
  %15 = load i32, ptr @ActiveProcessorCount, align 4
  %16 = icmp sgt i32 %15, 0
  br i1 %16, label %17, label %18

17:                                               ; preds = %14
  tail call void (ptr, ptr, ...) @_ZN12outputStream8print_crEPKcz(ptr noundef nonnull align 8 dereferenceable(56) %0, ptr noundef nonnull @.str.148, i32 noundef %12, i32 noundef %15) #26
  br label %20

18:                                               ; preds = %14
  tail call void (ptr, ptr, ...) @_ZN12outputStream8print_crEPKcz(ptr noundef nonnull align 8 dereferenceable(56) %0, ptr noundef nonnull @.str.149, i32 noundef %12) #26
  br label %20

19:                                               ; preds = %5
  tail call void (ptr, ptr, ...) @_ZN12outputStream8print_crEPKcz(ptr noundef nonnull align 8 dereferenceable(56) %0, ptr noundef nonnull @.str.144) #26
  br label %20

20:                                               ; preds = %17, %18, %19
  %21 = tail call noundef i32 @_ZN11OSContainer9cpu_quotaEv() #26
  tail call void (ptr, ptr, ...) @_ZN12outputStream5printEPKcz(ptr noundef nonnull align 8 dereferenceable(56) %0, ptr noundef nonnull @.str.150) #26
  %22 = icmp sgt i32 %21, 0
  br i1 %22, label %23, label %24

23:                                               ; preds = %20
  tail call void (ptr, ptr, ...) @_ZN12outputStream8print_crEPKcz(ptr noundef nonnull align 8 dereferenceable(56) %0, ptr noundef nonnull @.str.149, i32 noundef %21) #26
  br label %27

24:                                               ; preds = %20
  %25 = icmp eq i32 %21, -2
  %26 = select i1 %25, ptr @.str.144, ptr @.str.151
  tail call void (ptr, ptr, ...) @_ZN12outputStream8print_crEPKcz(ptr noundef nonnull align 8 dereferenceable(56) %0, ptr noundef nonnull @.str.46, ptr noundef nonnull %26) #26
  br label %27

27:                                               ; preds = %24, %23
  %28 = tail call noundef i32 @_ZN11OSContainer10cpu_periodEv() #26
  tail call void (ptr, ptr, ...) @_ZN12outputStream5printEPKcz(ptr noundef nonnull align 8 dereferenceable(56) %0, ptr noundef nonnull @.str.152) #26
  %29 = icmp sgt i32 %28, 0
  br i1 %29, label %30, label %31

30:                                               ; preds = %27
  tail call void (ptr, ptr, ...) @_ZN12outputStream8print_crEPKcz(ptr noundef nonnull align 8 dereferenceable(56) %0, ptr noundef nonnull @.str.149, i32 noundef %28) #26
  br label %34

31:                                               ; preds = %27
  %32 = icmp eq i32 %28, -2
  %33 = select i1 %32, ptr @.str.144, ptr @.str.153
  tail call void (ptr, ptr, ...) @_ZN12outputStream8print_crEPKcz(ptr noundef nonnull align 8 dereferenceable(56) %0, ptr noundef nonnull @.str.46, ptr noundef nonnull %33) #26
  br label %34

34:                                               ; preds = %31, %30
  %35 = tail call noundef i32 @_ZN11OSContainer10cpu_sharesEv() #26
  tail call void (ptr, ptr, ...) @_ZN12outputStream5printEPKcz(ptr noundef nonnull align 8 dereferenceable(56) %0, ptr noundef nonnull @.str.154) #26
  %36 = icmp sgt i32 %35, 0
  br i1 %36, label %37, label %38

37:                                               ; preds = %34
  tail call void (ptr, ptr, ...) @_ZN12outputStream8print_crEPKcz(ptr noundef nonnull align 8 dereferenceable(56) %0, ptr noundef nonnull @.str.149, i32 noundef %35) #26
  br label %41

38:                                               ; preds = %34
  %39 = icmp eq i32 %35, -2
  %40 = select i1 %39, ptr @.str.144, ptr @.str.155
  tail call void (ptr, ptr, ...) @_ZN12outputStream8print_crEPKcz(ptr noundef nonnull align 8 dereferenceable(56) %0, ptr noundef nonnull @.str.46, ptr noundef nonnull %40) #26
  br label %41

41:                                               ; preds = %38, %37
  %42 = tail call noundef i64 @_ZN11OSContainer21memory_limit_in_bytesEv() #26
  tail call void @_ZN11OSContainer22print_container_helperEP12outputStreamlPKc(ptr noundef nonnull %0, i64 noundef %42, ptr noundef nonnull @.str.156) #26
  %43 = tail call noundef i64 @_ZN11OSContainer30memory_and_swap_limit_in_bytesEv() #26
  tail call void @_ZN11OSContainer22print_container_helperEP12outputStreamlPKc(ptr noundef nonnull %0, i64 noundef %43, ptr noundef nonnull @.str.157) #26
  %44 = tail call noundef i64 @_ZN11OSContainer26memory_soft_limit_in_bytesEv() #26
  tail call void @_ZN11OSContainer22print_container_helperEP12outputStreamlPKc(ptr noundef nonnull %0, i64 noundef %44, ptr noundef nonnull @.str.158) #26
  %45 = tail call noundef i64 @_ZN11OSContainer21memory_usage_in_bytesEv() #26
  tail call void @_ZN11OSContainer22print_container_helperEP12outputStreamlPKc(ptr noundef nonnull %0, i64 noundef %45, ptr noundef nonnull @.str.159) #26
  %46 = tail call noundef i64 @_ZN11OSContainer25memory_max_usage_in_bytesEv() #26
  tail call void @_ZN11OSContainer22print_container_helperEP12outputStreamlPKc(ptr noundef nonnull %0, i64 noundef %46, ptr noundef nonnull @.str.160) #26
  %47 = tail call noundef i64 @_ZN11OSContainer18rss_usage_in_bytesEv() #26
  tail call void @_ZN11OSContainer22print_container_helperEP12outputStreamlPKc(ptr noundef nonnull %0, i64 noundef %47, ptr noundef nonnull @.str.161) #26
  %48 = tail call noundef i64 @_ZN11OSContainer20cache_usage_in_bytesEv() #26
  tail call void @_ZN11OSContainer22print_container_helperEP12outputStreamlPKc(ptr noundef nonnull %0, i64 noundef %48, ptr noundef nonnull @.str.162) #26
  tail call void @_ZN11OSContainer27print_version_specific_infoEP12outputStream(ptr noundef nonnull %0) #26
  %49 = tail call noundef i64 @_ZN11OSContainer8pids_maxEv() #26
  tail call void (ptr, ptr, ...) @_ZN12outputStream5printEPKcz(ptr noundef nonnull align 8 dereferenceable(56) %0, ptr noundef nonnull @.str.163) #26
  %50 = icmp sgt i64 %49, 0
  br i1 %50, label %51, label %52

51:                                               ; preds = %41
  tail call void (ptr, ptr, ...) @_ZN12outputStream8print_crEPKcz(ptr noundef nonnull align 8 dereferenceable(56) %0, ptr noundef nonnull @.str.164, i64 noundef %49) #26
  br label %55

52:                                               ; preds = %41
  %53 = icmp eq i64 %49, -2
  %54 = select i1 %53, ptr @.str.144, ptr @.str.165
  tail call void (ptr, ptr, ...) @_ZN12outputStream8print_crEPKcz(ptr noundef nonnull align 8 dereferenceable(56) %0, ptr noundef nonnull @.str.46, ptr noundef nonnull %54) #26
  br label %55

55:                                               ; preds = %52, %51
  %56 = tail call noundef i64 @_ZN11OSContainer12pids_currentEv() #26
  tail call void (ptr, ptr, ...) @_ZN12outputStream5printEPKcz(ptr noundef nonnull align 8 dereferenceable(56) %0, ptr noundef nonnull @.str.166) #26
  %57 = icmp sgt i64 %56, 0
  br i1 %57, label %58, label %59

58:                                               ; preds = %55
  tail call void (ptr, ptr, ...) @_ZN12outputStream8print_crEPKcz(ptr noundef nonnull align 8 dereferenceable(56) %0, ptr noundef nonnull @.str.164, i64 noundef %56) #26
  br label %62

59:                                               ; preds = %55
  %60 = icmp eq i64 %56, -2
  br i1 %60, label %61, label %62

61:                                               ; preds = %59
  tail call void (ptr, ptr, ...) @_ZN12outputStream8print_crEPKcz(ptr noundef nonnull align 8 dereferenceable(56) %0, ptr noundef nonnull @.str.144) #26
  br label %62

62:                                               ; preds = %58, %61, %59, %4
  ret i1 %3
}